; Function Attrs: mustprogress nofree norecurse nounwind willreturn memory(readwrite, inaccessiblemem: none) uwtable
define void @_ZN6duckdb21PipelineCompleteEvent14FinalizeFinishEv(ptr noundef nonnull readonly align 8 captures(none) dereferenceable(114) %0) unnamed_addr #22 align 2 {
  %2 = getelementptr inbounds nuw i8, ptr %0, i64 113
  %3 = load i8, ptr %2, align 1, !tbaa !1009, !range !156, !noundef !157
  %4 = trunc nuw i8 %3 to i1
  br i1 %4, label %5, label %10

5:                                                ; preds = %1
  %6 = getelementptr inbounds nuw i8, ptr %0, i64 24
  %7 = load ptr, ptr %6, align 8, !tbaa !658
  %8 = getelementptr inbounds nuw i8, ptr %7, i64 264
  %9 = atomicrmw add ptr %8, i64 1 seq_cst, align 8
  br label %10

10:                                               ; preds = %5, %1
  ret void
}